target datalayout = "e-m:e-p270:32:32-p271:32:32-p272:64:64-i64:64-i128:128-f80:128-n8:16:32:64-S128"
target triple = "x86_64-pc-linux-gnu"

%"class.pstd::span" = type { ptr, i64 }
%"class.pstd::span.1" = type { ptr, i64 }
%"class.pbrt::GammaColorEncoding" = type { float, %"class.pstd::array.11", %"class.pstd::array.12" }
%"class.pstd::array.11" = type { [256 x float] }
%"class.pstd::array.12" = type { [1024 x float] }

; Function Attrs: mustprogress nounwind uwtable
define linkonce_odr dso_local noundef nonnull align 1 dereferenceable(1) ptr @_ZN4pstd4spanIhEixEm(ptr noundef nonnull align 8 dereferenceable(16) %0, i64 noundef %1) #6 comdat align 2 {
  %3 = alloca ptr, align 8
  %4 = alloca i64, align 8
  store ptr %0, ptr %3, align 8, !tbaa !75
  store i64 %1, ptr %4, align 8, !tbaa !39
  %5 = load ptr, ptr %3, align 8
  br label %6

6:                                                ; preds = %2
  br label %7

7:                                                ; preds = %6
  %8 = getelementptr inbounds nuw %"class.pstd::span.1", ptr %5, i32 0, i32 0
  %9 = load ptr, ptr %8, align 8, !tbaa !77
  %10 = load i64, ptr %4, align 8, !tbaa !39
  %11 = getelementptr inbounds nuw i8, ptr %9, i64 %10
  ret ptr %11
}

; Function Attrs: mustprogress nounwind uwtable
define linkonce_odr dso_local noundef nonnull align 4 dereferenceable(4) ptr @_ZNK4pstd5arrayIfLi1024EEixEm(ptr noundef nonnull align 4 dereferenceable(4096) %0, i64 noundef %1) #6 comdat align 2 {
  %3 = alloca ptr, align 8
  %4 = alloca i64, align 8
  store ptr %0, ptr %3, align 8, !tbaa !130
  store i64 %1, ptr %4, align 8, !tbaa !39
  %5 = load ptr, ptr %3, align 8
  %6 = getelementptr inbounds nuw %"class.pstd::array.12", ptr %5, i32 0, i32 0
  %7 = load i64, ptr %4, align 8, !tbaa !39
  %8 = getelementptr inbounds nuw [1024 x float], ptr %6, i64 0, i64 %7
  ret ptr %8
}

; Function Attrs: inlinehint mustprogress nounwind uwtable
define linkonce_odr dso_local noundef float @_ZN4pbrt5ClampIfimEET_S1_T0_T1_(float noundef %0, i32 noundef %1, i64 noundef %2) #7 comdat {
  %4 = alloca float, align 4
  %5 = alloca float, align 4
  %6 = alloca i32, align 4
  %7 = alloca i64, align 8
  store float %0, ptr %5, align 4, !tbaa !9
  store i32 %1, ptr %6, align 4, !tbaa !23
  store i64 %2, ptr %7, align 8, !tbaa !39
  %8 = load float, ptr %5, align 4, !tbaa !9
  %9 = load i32, ptr %6, align 4, !tbaa !23
  %10 = sitofp i32 %9 to float
  %11 = fcmp olt float %8, %10
  br i1 %11, label %12, label %15

12:                                               ; preds = %3
  %13 = load i32, ptr %6, align 4, !tbaa !23
  %14 = sitofp i32 %13 to float
  store float %14, ptr %4, align 4
  br label %25

15:                                               ; preds = %3
  %16 = load float, ptr %5, align 4, !tbaa !9
  %17 = load i64, ptr %7, align 8, !tbaa !39
  %18 = uitofp i64 %17 to float
  %19 = fcmp ogt float %16, %18
  br i1 %19, label %20, label %23

20:                                               ; preds = %15
  %21 = load i64, ptr %7, align 8, !tbaa !39
  %22 = uitofp i64 %21 to float
  store float %22, ptr %4, align 4
  br label %25

23:                                               ; preds = %15
  %24 = load float, ptr %5, align 4, !tbaa !9
  store float %24, ptr %4, align 4
  br label %25

25:                                               ; preds = %23, %20, %12
  %26 = load float, ptr %4, align 4
  ret float %26
}

; Function Attrs: mustprogress nounwind uwtable
define linkonce_odr dso_local noundef i64 @_ZNK4pstd5arrayIfLi1024EE4sizeEv(ptr noundef nonnull align 4 dereferenceable(4096) %0) #6 comdat align 2 {
  %2 = alloca ptr, align 8
  store ptr %0, ptr %2, align 8, !tbaa !130
  ret i64 1024
}

; Function Attrs: mustprogress nounwind uwtable
define linkonce_odr dso_local noundef nonnull align 4 dereferenceable(4) ptr @_ZN4pstd4spanIKfEixEm(ptr noundef nonnull align 8 dereferenceable(16) %0, i64 noundef %1) #6 comdat align 2 {
  %3 = alloca ptr, align 8
  %4 = alloca i64, align 8
  store ptr %0, ptr %3, align 8, !tbaa !70
  store i64 %1, ptr %4, align 8, !tbaa !39
  %5 = load ptr, ptr %3, align 8
  br label %6

6:                                                ; preds = %2
  br label %7

7:                                                ; preds = %6
  %8 = getelementptr inbounds nuw %"class.pstd::span", ptr %5, i32 0, i32 0
  %9 = load ptr, ptr %8, align 8, !tbaa !74
  %10 = load i64, ptr %4, align 8, !tbaa !39
  %11 = getelementptr inbounds nuw float, ptr %9, i64 %10
  ret ptr %11
}

; Function Attrs: mustprogress nounwind uwtable
define linkonce_odr dso_local noundef i64 @_ZNK4pstd4spanIKfE4sizeEv(ptr noundef nonnull align 8 dereferenceable(16) %0) #6 comdat align 2 {
  %2 = alloca ptr, align 8
  store ptr %0, ptr %2, align 8, !tbaa !70
  %3 = load ptr, ptr %2, align 8
  %4 = getelementptr inbounds nuw %"class.pstd::span", ptr %3, i32 0, i32 1
  %5 = load i64, ptr %4, align 8, !tbaa !72
  ret i64 %5
}

; Function Attrs: mustprogress uwtable
define dso_local void @_ZNK4pbrt18GammaColorEncoding10FromLinearEN4pstd4spanIKfEENS2_IhEE(ptr noundef nonnull align 4 dereferenceable(5124) %0, ptr %1, i64 %2, ptr %3, i64 %4) #1 align 2 {
  %6 = alloca %"class.pstd::span", align 8
  %7 = alloca %"class.pstd::span.1", align 8
  %8 = alloca ptr, align 8
  %9 = alloca i64, align 8
  %10 = getelementptr inbounds nuw { ptr, i64 }, ptr %6, i32 0, i32 0
  store ptr %1, ptr %10, align 8
  %11 = getelementptr inbounds nuw { ptr, i64 }, ptr %6, i32 0, i32 1
  store i64 %2, ptr %11, align 8
  %12 = getelementptr inbounds nuw { ptr, i64 }, ptr %7, i32 0, i32 0
  store ptr %3, ptr %12, align 8
  %13 = getelementptr inbounds nuw { ptr, i64 }, ptr %7, i32 0, i32 1
  store i64 %4, ptr %13, align 8
  store ptr %0, ptr %8, align 8, !tbaa !118
  %14 = load ptr, ptr %8, align 8
  br label %15

15:                                               ; preds = %5
  br label %16

16:                                               ; preds = %15
  call void @llvm.lifetime.start.p0(i64 8, ptr %9) #9
  store i64 0, ptr %9, align 8, !tbaa !39
  br label %17

17:                                               ; preds = %42, %16
  %18 = load i64, ptr %9, align 8, !tbaa !39
  %19 = call noundef i64 @_ZNK4pstd4spanIKfE4sizeEv(ptr noundef nonnull align 8 dereferenceable(16) %6)
  %20 = icmp ult i64 %18, %19
  br i1 %20, label %22, label %21

21:                                               ; preds = %17
  call void @llvm.lifetime.end.p0(i64 8, ptr %9) #9
  br label %45

22:                                               ; preds = %17
  %23 = getelementptr inbounds nuw %"class.pbrt::GammaColorEncoding", ptr %14, i32 0, i32 2
  %24 = load i64, ptr %9, align 8, !tbaa !39
  %25 = call noundef nonnull align 4 dereferenceable(4) ptr @_ZN4pstd4spanIKfEixEm(ptr noundef nonnull align 8 dereferenceable(16) %6, i64 noundef %24)
  %26 = load float, ptr %25, align 4, !tbaa !9
  %27 = getelementptr inbounds nuw %"class.pbrt::GammaColorEncoding", ptr %14, i32 0, i32 2
  %28 = call noundef i64 @_ZNK4pstd5arrayIfLi1024EE4sizeEv(ptr noundef nonnull align 4 dereferenceable(4096) %27)
  %29 = sub i64 %28, 1
  %30 = uitofp i64 %29 to float
  %31 = fmul float %26, %30
  %32 = getelementptr inbounds nuw %"class.pbrt::GammaColorEncoding", ptr %14, i32 0, i32 2
  %33 = call noundef i64 @_ZNK4pstd5arrayIfLi1024EE4sizeEv(ptr noundef nonnull align 4 dereferenceable(4096) %32)
  %34 = sub i64 %33, 1
  %35 = call noundef float @_ZN4pbrt5ClampIfimEET_S1_T0_T1_(float noundef %31, i32 noundef 0, i64 noundef %34)
  %36 = fptoui float %35 to i64
  %37 = call noundef nonnull align 4 dereferenceable(4) ptr @_ZNK4pstd5arrayIfLi1024EEixEm(ptr noundef nonnull align 4 dereferenceable(4096) %23, i64 noundef %36)
  %38 = load float, ptr %37, align 4, !tbaa !9
  %39 = fptoui float %38 to i8
  %40 = load i64, ptr %9, align 8, !tbaa !39
  %41 = call noundef nonnull align 1 dereferenceable(1) ptr @_ZN4pstd4spanIhEixEm(ptr noundef nonnull align 8 dereferenceable(16) %7, i64 noundef %40)
  store i8 %39, ptr %41, align 1, !tbaa !68
  br label %42

42:                                               ; preds = %22
  %43 = load i64, ptr %9, align 8, !tbaa !39
  %44 = add i64 %43, 1
  store i64 %44, ptr %9, align 8, !tbaa !39
  br label %17, !llvm.loop !133

45:                                               ; preds = %21
  ret void
}