; Function Attrs: mustprogress nofree norecurse nosync nounwind memory(argmem: readwrite) uwtable
define dso_local void @_ZNK4pbrt18GammaColorEncoding10FromLinearEN4pstd4spanIKfEENS2_IhEE(ptr noundef nonnull readonly align 4 captures(none) dereferenceable(5124) %0, ptr readonly captures(none) %1, i64 %2, ptr writeonly captures(none) %3, i64 %4) local_unnamed_addr #5 align 2 {
  %.not = icmp eq i64 %2, 0
  br i1 %.not, label %._crit_edge, label %.lr.ph

.lr.ph:                                           ; preds = %5
  %6 = getelementptr inbounds nuw i8, ptr %0, i64 1028
  br label %7

._crit_edge:                                      ; preds = %7, %5
  ret void

7:                                                ; preds = %.lr.ph, %7
  %.06 = phi i64 [ 0, %.lr.ph ], [ %18, %7 ]
  %8 = getelementptr inbounds nuw float, ptr %1, i64 %.06
  %9 = load float, ptr %8, align 4, !tbaa !26
  %10 = fmul float %9, 1.023000e+03
  %11 = fcmp olt float %10, 0.000000e+00
  %12 = fcmp ogt float %10, 1.023000e+03
  %..i = select i1 %12, float 1.023000e+03, float %10
  %.0.i = select i1 %11, float 0.000000e+00, float %..i
  %13 = fptoui float %.0.i to i64
  %14 = getelementptr inbounds nuw [1024 x float], ptr %6, i64 0, i64 %13
  %15 = load float, ptr %14, align 4, !tbaa !26
  %16 = fptoui float %15 to i8
  %17 = getelementptr inbounds nuw i8, ptr %3, i64 %.06
  store i8 %16, ptr %17, align 1, !tbaa !16
  %18 = add nuw i64 %.06, 1
  %exitcond.not = icmp eq i64 %18, %2
  br i1 %exitcond.not, label %._crit_edge, label %7, !llvm.loop !116
}